; Function Attrs: mustprogress uwtable
define hidden void @_ZN2cv7GOriginC2ENS_6GShapeERKNS_5GNodeEmNS_4util7variantIJNS5_9monostateESt8functionIFvRNS_6detail9VectorRefEEES8_IFvRNS9_9OpaqueRefEEEEEENS9_10OpaqueKindE(ptr noundef nonnull align 8 dereferenceable(180) %0, i32 noundef %1, ptr nocapture noundef nonnull readonly align 8 dereferenceable(16) %2, i64 noundef %3, ptr noundef %4, i32 noundef %5) unnamed_addr #3 align 2 personality ptr @__gxx_personality_v0 {
  store i32 %1, ptr %0, align 8
  %7 = getelementptr inbounds i8, ptr %0, i64 8
  %8 = load ptr, ptr %2, align 8
  store ptr %8, ptr %7, align 8
  %9 = getelementptr inbounds i8, ptr %0, i64 16
  %10 = getelementptr inbounds i8, ptr %2, i64 8
  %11 = load ptr, ptr %10, align 8
  store ptr %11, ptr %9, align 8
  %.not.i.i.i.i = icmp eq ptr %11, null
  br i1 %.not.i.i.i.i, label %_ZN2cv5GNodeC2ERKS0_.exit, label %12

12:                                               ; preds = %6
  %13 = getelementptr inbounds i8, ptr %11, i64 8
  %14 = load i8, ptr @__libc_single_threaded, align 1
  %.not.i.i.i.i.i = icmp eq i8 %14, 0
  br i1 %.not.i.i.i.i.i, label %18, label %15

15:                                               ; preds = %12
  %16 = load i32, ptr %13, align 4
  %17 = add nsw i32 %16, 1
  store i32 %17, ptr %13, align 4
  br label %_ZN2cv5GNodeC2ERKS0_.exit

18:                                               ; preds = %12
  %19 = atomicrmw volatile add ptr %13, i32 1 acq_rel, align 4
  br label %_ZN2cv5GNodeC2ERKS0_.exit

_ZN2cv5GNodeC2ERKS0_.exit:                        ; preds = %6, %15, %18
  %20 = getelementptr inbounds i8, ptr %0, i64 24
  store i64 0, ptr %20, align 8
  %21 = getelementptr inbounds i8, ptr %0, i64 128
  store i64 %3, ptr %21, align 8
  %22 = getelementptr inbounds i8, ptr %0, i64 136
  %23 = load i64, ptr %4, align 8
  store i64 %23, ptr %22, align 8
  %24 = getelementptr inbounds [3 x ptr], ptr @constinit, i64 0, i64 %23
  %25 = load ptr, ptr %24, align 8
  %26 = getelementptr inbounds i8, ptr %0, i64 144
  %27 = getelementptr inbounds i8, ptr %4, i64 8
  invoke void %25(ptr noundef nonnull %26, ptr noundef nonnull %27)
          to label %_ZN2cv4util7variantIJNS0_9monostateESt8functionIFvRNS_6detail9VectorRefEEES3_IFvRNS4_9OpaqueRefEEEEEC2ERKSD_.exit unwind label %29

_ZN2cv4util7variantIJNS0_9monostateESt8functionIFvRNS_6detail9VectorRefEEES3_IFvRNS4_9OpaqueRefEEEEEC2ERKSD_.exit: ; preds = %_ZN2cv5GNodeC2ERKS0_.exit
  %28 = getelementptr inbounds i8, ptr %0, i64 176
  store i32 %5, ptr %28, align 8
  ret void

29:                                               ; preds = %_ZN2cv5GNodeC2ERKS0_.exit
  %30 = landingpad { ptr, i32 }
          cleanup
  %31 = load i64, ptr %20, align 8
  %32 = getelementptr inbounds [4 x ptr], ptr @constinit.2, i64 0, i64 %31
  %33 = load ptr, ptr %32, align 8
  %34 = getelementptr inbounds i8, ptr %0, i64 32
  invoke void %33(ptr noundef nonnull %34)
          to label %_ZN2cv4util7variantIJNS0_9monostateENS_7Scalar_IdEENS_6detail9VectorRefENS_3MatEEED2Ev.exit unwind label %35

35:                                               ; preds = %29
  %36 = landingpad { ptr, i32 }
          catch ptr null
  %37 = extractvalue { ptr, i32 } %36, 0
  tail call void @__clang_call_terminate(ptr %37) #9
  unreachable

_ZN2cv4util7variantIJNS0_9monostateENS_7Scalar_IdEENS_6detail9VectorRefENS_3MatEEED2Ev.exit: ; preds = %29
  tail call void @_ZN2cv5GNodeD2Ev(ptr noundef nonnull align 8 dereferenceable(16) %7) #10
  resume { ptr, i32 } %30
}